target datalayout = "e-m:e-p270:32:32-p271:32:32-p272:64:64-i64:64-i128:128-f80:128-n8:16:32:64-S128"
target triple = "x86_64-pc-linux-gnu"

%"class.pxrInternal_v0_24__pxrReserved__::TfCallContext" = type <{ ptr, ptr, i64, ptr, i8, [7 x i8] }>
%"class.pxrInternal_v0_24__pxrReserved__::GfInterval" = type { %"struct.pxrInternal_v0_24__pxrReserved__::GfInterval::_Bound", %"struct.pxrInternal_v0_24__pxrReserved__::GfInterval::_Bound" }
%"struct.pxrInternal_v0_24__pxrReserved__::GfInterval::_Bound" = type <{ double, i8, [7 x i8] }>
%"struct.std::_Vector_base.20" = type { %"struct.std::_Vector_base<pxrInternal_v0_24__pxrReserved__::(anonymous namespace)::_EditSimplifyKnotInfo, std::allocator<pxrInternal_v0_24__pxrReserved__::(anonymous namespace)::_EditSimplifyKnotInfo>>::_Vector_impl" }
%"struct.std::_Vector_base<pxrInternal_v0_24__pxrReserved__::(anonymous namespace)::_EditSimplifyKnotInfo, std::allocator<pxrInternal_v0_24__pxrReserved__::(anonymous namespace)::_EditSimplifyKnotInfo>>::_Vector_impl" = type { %"struct.std::_Vector_base<pxrInternal_v0_24__pxrReserved__::(anonymous namespace)::_EditSimplifyKnotInfo, std::allocator<pxrInternal_v0_24__pxrReserved__::(anonymous namespace)::_EditSimplifyKnotInfo>>::_Vector_impl_data" }
%"struct.std::_Vector_base<pxrInternal_v0_24__pxrReserved__::(anonymous namespace)::_EditSimplifyKnotInfo, std::allocator<pxrInternal_v0_24__pxrReserved__::(anonymous namespace)::_EditSimplifyKnotInfo>>::_Vector_impl_data" = type { ptr, ptr, ptr }
%"struct.pxrInternal_v0_24__pxrReserved__::(anonymous namespace)::_EditSimplifyKnotInfo" = type { double, i32, i8, double }

@.str = private unnamed_addr constant [118 x i8] c"generated/home/dtcxzyw/WorkSpace/Projects/compilers/llvm-opt-benchmark/bench/openusd/OpenUSD/pxr/base/ts/simplify.cpp\00", align 1
@__func__._ZN32pxrInternal_v0_24__pxrReserved__L29_SetKnotInfoErrorIfKeyRemovedERSt6vectorINS_12_GLOBAL__N_121_EditSimplifyKnotInfoESaIS2_EEmPNS_8TsSplineERKS0_IdSaIdEERKNS_10GfIntervalE = private unnamed_addr constant [30 x i8] c"_SetKnotInfoErrorIfKeyRemoved\00", align 1
@.str.18 = private unnamed_addr constant [24 x i8] c"i >= 0 && i < ki.size()\00", align 1
@.str.19 = private unnamed_addr constant [25 x i8] c"i > 0 && i < ki.size()-1\00", align 1

; Function Attrs: mustprogress nounwind uwtable
define linkonce_odr noundef double @_ZNSt14numeric_limitsIdE8infinityEv() #5 comdat align 2 {
  ret double 0x7FF0000000000000
}

; Function Attrs: mustprogress nounwind uwtable
define linkonce_odr void @_ZN32pxrInternal_v0_24__pxrReserved__10GfInterval6_BoundC2Edb(ptr noundef nonnull align 8 dereferenceable(9) %0, double noundef %1, i1 noundef zeroext %2) unnamed_addr #5 comdat align 2 {
  %4 = alloca ptr, align 8
  %5 = alloca double, align 8
  %6 = alloca i8, align 1
  store ptr %0, ptr %4, align 8
  store double %1, ptr %5, align 8
  %7 = zext i1 %2 to i8
  store i8 %7, ptr %6, align 1
  %8 = load ptr, ptr %4, align 8
  %9 = getelementptr inbounds nuw %"struct.pxrInternal_v0_24__pxrReserved__::GfInterval::_Bound", ptr %8, i32 0, i32 0
  %10 = load double, ptr %5, align 8
  store double %10, ptr %9, align 8
  %11 = getelementptr inbounds nuw %"struct.pxrInternal_v0_24__pxrReserved__::GfInterval::_Bound", ptr %8, i32 0, i32 1
  %12 = load i8, ptr %6, align 1
  %13 = trunc i8 %12 to i1
  %14 = zext i1 %13 to i8
  store i8 %14, ptr %11, align 8
  %15 = getelementptr inbounds nuw %"struct.pxrInternal_v0_24__pxrReserved__::GfInterval::_Bound", ptr %8, i32 0, i32 0
  %16 = load double, ptr %15, align 8
  %17 = call noundef double @_ZNSt14numeric_limitsIdE8infinityEv() #3
  %18 = fneg double %17
  %19 = fcmp oeq double %16, %18
  br i1 %19, label %25, label %20

20:                                               ; preds = %3
  %21 = getelementptr inbounds nuw %"struct.pxrInternal_v0_24__pxrReserved__::GfInterval::_Bound", ptr %8, i32 0, i32 0
  %22 = load double, ptr %21, align 8
  %23 = call noundef double @_ZNSt14numeric_limitsIdE8infinityEv() #3
  %24 = fcmp oeq double %22, %23
  br i1 %24, label %25, label %27

25:                                               ; preds = %20, %3
  %26 = getelementptr inbounds nuw %"struct.pxrInternal_v0_24__pxrReserved__::GfInterval::_Bound", ptr %8, i32 0, i32 1
  store i8 0, ptr %26, align 8
  br label %27

27:                                               ; preds = %25, %20
  ret void
}

; Function Attrs: mustprogress uwtable
define linkonce_odr void @_ZN32pxrInternal_v0_24__pxrReserved__10GfIntervalC2Eddbb(ptr noundef nonnull align 8 dereferenceable(32) %0, double noundef %1, double noundef %2, i1 noundef zeroext %3, i1 noundef zeroext %4) unnamed_addr #4 comdat align 2 {
  %6 = alloca ptr, align 8
  %7 = alloca double, align 8
  %8 = alloca double, align 8
  %9 = alloca i8, align 1
  %10 = alloca i8, align 1
  store ptr %0, ptr %6, align 8
  store double %1, ptr %7, align 8
  store double %2, ptr %8, align 8
  %11 = zext i1 %3 to i8
  store i8 %11, ptr %9, align 1
  %12 = zext i1 %4 to i8
  store i8 %12, ptr %10, align 1
  %13 = load ptr, ptr %6, align 8
  %14 = getelementptr inbounds nuw %"class.pxrInternal_v0_24__pxrReserved__::GfInterval", ptr %13, i32 0, i32 0
  %15 = load double, ptr %7, align 8
  %16 = load i8, ptr %9, align 1
  %17 = trunc i8 %16 to i1
  call void @_ZN32pxrInternal_v0_24__pxrReserved__10GfInterval6_BoundC2Edb(ptr noundef nonnull align 8 dereferenceable(9) %14, double noundef %15, i1 noundef zeroext %17)
  %18 = getelementptr inbounds nuw %"class.pxrInternal_v0_24__pxrReserved__::GfInterval", ptr %13, i32 0, i32 1
  %19 = load double, ptr %8, align 8
  %20 = load i8, ptr %10, align 1
  %21 = trunc i8 %20 to i1
  call void @_ZN32pxrInternal_v0_24__pxrReserved__10GfInterval6_BoundC2Edb(ptr noundef nonnull align 8 dereferenceable(9) %18, double noundef %19, i1 noundef zeroext %21)
  ret void
}

; Function Attrs: mustprogress nounwind uwtable
define internal noundef nonnull align 8 dereferenceable(24) ptr @_ZNSt6vectorIN32pxrInternal_v0_24__pxrReserved__12_GLOBAL__N_121_EditSimplifyKnotInfoESaIS2_EEixEm(ptr noundef nonnull align 8 dereferenceable(24) %0, i64 noundef %1) #5 align 2 {
  %3 = alloca ptr, align 8
  %4 = alloca i64, align 8
  store ptr %0, ptr %3, align 8
  store i64 %1, ptr %4, align 8
  %5 = load ptr, ptr %3, align 8
  %6 = getelementptr inbounds nuw %"struct.std::_Vector_base.20", ptr %5, i32 0, i32 0
  %7 = getelementptr inbounds nuw %"struct.std::_Vector_base<pxrInternal_v0_24__pxrReserved__::(anonymous namespace)::_EditSimplifyKnotInfo, std::allocator<pxrInternal_v0_24__pxrReserved__::(anonymous namespace)::_EditSimplifyKnotInfo>>::_Vector_impl_data", ptr %6, i32 0, i32 0
  %8 = load ptr, ptr %7, align 8
  %9 = load i64, ptr %4, align 8
  %10 = getelementptr inbounds %"struct.pxrInternal_v0_24__pxrReserved__::(anonymous namespace)::_EditSimplifyKnotInfo", ptr %8, i64 %9
  ret ptr %10
}

; Function Attrs: mustprogress nounwind uwtable
define linkonce_odr noundef ptr @_ZN32pxrInternal_v0_24__pxrReserved__21Tf_VerifyStringFormatEv() #5 comdat {
  ret ptr null
}

; Function Attrs: mustprogress nounwind uwtable
define linkonce_odr void @_ZN32pxrInternal_v0_24__pxrReserved__13TfCallContextC2EPKcS2_mS2_(ptr noundef nonnull align 8 dereferenceable(33) %0, ptr noundef %1, ptr noundef %2, i64 noundef %3, ptr noundef %4) unnamed_addr #5 comdat align 2 {
  %6 = alloca ptr, align 8
  %7 = alloca ptr, align 8
  %8 = alloca ptr, align 8
  %9 = alloca i64, align 8
  %10 = alloca ptr, align 8
  store ptr %0, ptr %6, align 8
  store ptr %1, ptr %7, align 8
  store ptr %2, ptr %8, align 8
  store i64 %3, ptr %9, align 8
  store ptr %4, ptr %10, align 8
  %11 = load ptr, ptr %6, align 8
  %12 = getelementptr inbounds nuw %"class.pxrInternal_v0_24__pxrReserved__::TfCallContext", ptr %11, i32 0, i32 0
  %13 = load ptr, ptr %7, align 8
  store ptr %13, ptr %12, align 8
  %14 = getelementptr inbounds nuw %"class.pxrInternal_v0_24__pxrReserved__::TfCallContext", ptr %11, i32 0, i32 1
  %15 = load ptr, ptr %8, align 8
  store ptr %15, ptr %14, align 8
  %16 = getelementptr inbounds nuw %"class.pxrInternal_v0_24__pxrReserved__::TfCallContext", ptr %11, i32 0, i32 2
  %17 = load i64, ptr %9, align 8
  store i64 %17, ptr %16, align 8
  %18 = getelementptr inbounds nuw %"class.pxrInternal_v0_24__pxrReserved__::TfCallContext", ptr %11, i32 0, i32 3
  %19 = load ptr, ptr %10, align 8
  store ptr %19, ptr %18, align 8
  %20 = getelementptr inbounds nuw %"class.pxrInternal_v0_24__pxrReserved__::TfCallContext", ptr %11, i32 0, i32 4
  store i8 0, ptr %20, align 8
  ret void
}

; Function Attrs: mustprogress nounwind uwtable
define internal noundef i64 @_ZNKSt6vectorIN32pxrInternal_v0_24__pxrReserved__12_GLOBAL__N_121_EditSimplifyKnotInfoESaIS2_EE4sizeEv(ptr noundef nonnull align 8 dereferenceable(24) %0) #5 align 2 {
  %2 = alloca ptr, align 8
  store ptr %0, ptr %2, align 8
  %3 = load ptr, ptr %2, align 8
  %4 = getelementptr inbounds nuw %"struct.std::_Vector_base.20", ptr %3, i32 0, i32 0
  %5 = getelementptr inbounds nuw %"struct.std::_Vector_base<pxrInternal_v0_24__pxrReserved__::(anonymous namespace)::_EditSimplifyKnotInfo, std::allocator<pxrInternal_v0_24__pxrReserved__::(anonymous namespace)::_EditSimplifyKnotInfo>>::_Vector_impl_data", ptr %4, i32 0, i32 1
  %6 = load ptr, ptr %5, align 8
  %7 = getelementptr inbounds nuw %"struct.std::_Vector_base.20", ptr %3, i32 0, i32 0
  %8 = getelementptr inbounds nuw %"struct.std::_Vector_base<pxrInternal_v0_24__pxrReserved__::(anonymous namespace)::_EditSimplifyKnotInfo, std::allocator<pxrInternal_v0_24__pxrReserved__::(anonymous namespace)::_EditSimplifyKnotInfo>>::_Vector_impl_data", ptr %7, i32 0, i32 0
  %9 = load ptr, ptr %8, align 8
  %10 = ptrtoint ptr %6 to i64
  %11 = ptrtoint ptr %9 to i64
  %12 = sub i64 %10, %11
  %13 = sdiv exact i64 %12, 24
  ret i64 %13
}

; Function Attrs: mustprogress uwtable
define internal void @_ZN32pxrInternal_v0_24__pxrReserved__L29_SetKnotInfoErrorIfKeyRemovedERSt6vectorINS_12_GLOBAL__N_121_EditSimplifyKnotInfoESaIS2_EEmPNS_8TsSplineERKS0_IdSaIdEERKNS_10GfIntervalE(ptr noundef nonnull align 8 dereferenceable(24) %0, i64 noundef %1, ptr noundef %2, ptr noundef nonnull align 8 dereferenceable(24) %3, ptr noundef nonnull align 8 dereferenceable(32) %4) #4 {
  %6 = alloca ptr, align 8
  %7 = alloca i64, align 8
  %8 = alloca ptr, align 8
  %9 = alloca ptr, align 8
  %10 = alloca ptr, align 8
  %11 = alloca %"class.pxrInternal_v0_24__pxrReserved__::TfCallContext", align 8
  %12 = alloca %"class.pxrInternal_v0_24__pxrReserved__::TfCallContext", align 8
  %13 = alloca %"class.pxrInternal_v0_24__pxrReserved__::GfInterval", align 8
  store ptr %0, ptr %6, align 8
  store i64 %1, ptr %7, align 8
  store ptr %2, ptr %8, align 8
  store ptr %3, ptr %9, align 8
  store ptr %4, ptr %10, align 8
  %14 = load i64, ptr %7, align 8
  %15 = icmp uge i64 %14, 0
  br i1 %15, label %16, label %21

16:                                               ; preds = %5
  %17 = load i64, ptr %7, align 8
  %18 = load ptr, ptr %6, align 8
  %19 = call noundef i64 @_ZNKSt6vectorIN32pxrInternal_v0_24__pxrReserved__12_GLOBAL__N_121_EditSimplifyKnotInfoESaIS2_EE4sizeEv(ptr noundef nonnull align 8 dereferenceable(24) %18) #3
  %20 = icmp ult i64 %17, %19
  br label %21

21:                                               ; preds = %16, %5
  %22 = phi i1 [ false, %5 ], [ %20, %16 ]
  br i1 %22, label %23, label %24

23:                                               ; preds = %21
  br label %27

24:                                               ; preds = %21
  call void @_ZN32pxrInternal_v0_24__pxrReserved__13TfCallContextC2EPKcS2_mS2_(ptr noundef nonnull align 8 dereferenceable(33) %11, ptr noundef @.str, ptr noundef @__func__._ZN32pxrInternal_v0_24__pxrReserved__L29_SetKnotInfoErrorIfKeyRemovedERSt6vectorINS_12_GLOBAL__N_121_EditSimplifyKnotInfoESaIS2_EEmPNS_8TsSplineERKS0_IdSaIdEERKNS_10GfIntervalE, i64 noundef 395, ptr noundef @__PRETTY_FUNCTION__._ZN32pxrInternal_v0_24__pxrReserved__L29_SetKnotInfoErrorIfKeyRemovedERSt6vectorINS_12_GLOBAL__N_121_EditSimplifyKnotInfoESaIS2_EEmPNS_8TsSplineERKS0_IdSaIdEERKNS_10GfIntervalE)
  %25 = call noundef ptr @_ZN32pxrInternal_v0_24__pxrReserved__21Tf_VerifyStringFormatEv()
  %26 = call noundef zeroext i1 @_ZN32pxrInternal_v0_24__pxrReserved__21Tf_FailedVerifyHelperERKNS_13TfCallContextEPKcS4_(ptr noundef nonnull align 8 dereferenceable(33) %11, ptr noundef @.str.18, ptr noundef %25)
  br label %27

27:                                               ; preds = %24, %23
  %28 = phi i1 [ true, %23 ], [ %26, %24 ]
  %29 = xor i1 %28, true
  br i1 %29, label %30, label %31

30:                                               ; preds = %27
  br label %88

31:                                               ; preds = %27
  %32 = load ptr, ptr %6, align 8
  %33 = load i64, ptr %7, align 8
  %34 = call noundef nonnull align 8 dereferenceable(24) ptr @_ZNSt6vectorIN32pxrInternal_v0_24__pxrReserved__12_GLOBAL__N_121_EditSimplifyKnotInfoESaIS2_EEixEm(ptr noundef nonnull align 8 dereferenceable(24) %32, i64 noundef %33) #3
  %35 = getelementptr inbounds nuw %"struct.pxrInternal_v0_24__pxrReserved__::(anonymous namespace)::_EditSimplifyKnotInfo", ptr %34, i32 0, i32 2
  %36 = load i8, ptr %35, align 4
  %37 = trunc i8 %36 to i1
  br i1 %37, label %38, label %83

38:                                               ; preds = %31
  %39 = load i64, ptr %7, align 8
  %40 = icmp ugt i64 %39, 0
  br i1 %40, label %41, label %47

41:                                               ; preds = %38
  %42 = load i64, ptr %7, align 8
  %43 = load ptr, ptr %6, align 8
  %44 = call noundef i64 @_ZNKSt6vectorIN32pxrInternal_v0_24__pxrReserved__12_GLOBAL__N_121_EditSimplifyKnotInfoESaIS2_EE4sizeEv(ptr noundef nonnull align 8 dereferenceable(24) %43) #3
  %45 = sub i64 %44, 1
  %46 = icmp ult i64 %42, %45
  br label %47

47:                                               ; preds = %41, %38
  %48 = phi i1 [ false, %38 ], [ %46, %41 ]
  br i1 %48, label %49, label %50

49:                                               ; preds = %47
  br label %53

50:                                               ; preds = %47
  call void @_ZN32pxrInternal_v0_24__pxrReserved__13TfCallContextC2EPKcS2_mS2_(ptr noundef nonnull align 8 dereferenceable(33) %12, ptr noundef @.str, ptr noundef @__func__._ZN32pxrInternal_v0_24__pxrReserved__L29_SetKnotInfoErrorIfKeyRemovedERSt6vectorINS_12_GLOBAL__N_121_EditSimplifyKnotInfoESaIS2_EEmPNS_8TsSplineERKS0_IdSaIdEERKNS_10GfIntervalE, i64 noundef 400, ptr noundef @__PRETTY_FUNCTION__._ZN32pxrInternal_v0_24__pxrReserved__L29_SetKnotInfoErrorIfKeyRemovedERSt6vectorINS_12_GLOBAL__N_121_EditSimplifyKnotInfoESaIS2_EEmPNS_8TsSplineERKS0_IdSaIdEERKNS_10GfIntervalE)
  %51 = call noundef ptr @_ZN32pxrInternal_v0_24__pxrReserved__21Tf_VerifyStringFormatEv()
  %52 = call noundef zeroext i1 @_ZN32pxrInternal_v0_24__pxrReserved__21Tf_FailedVerifyHelperERKNS_13TfCallContextEPKcS4_(ptr noundef nonnull align 8 dereferenceable(33) %12, ptr noundef @.str.19, ptr noundef %51)
  br label %53

53:                                               ; preds = %50, %49
  %54 = phi i1 [ true, %49 ], [ %52, %50 ]
  %55 = xor i1 %54, true
  br i1 %55, label %56, label %57

56:                                               ; preds = %53
  br label %88

57:                                               ; preds = %53
  %58 = load ptr, ptr %8, align 8
  %59 = load ptr, ptr %6, align 8
  %60 = load i64, ptr %7, align 8
  %61 = call noundef nonnull align 8 dereferenceable(24) ptr @_ZNSt6vectorIN32pxrInternal_v0_24__pxrReserved__12_GLOBAL__N_121_EditSimplifyKnotInfoESaIS2_EEixEm(ptr noundef nonnull align 8 dereferenceable(24) %59, i64 noundef %60) #3
  %62 = getelementptr inbounds nuw %"struct.pxrInternal_v0_24__pxrReserved__::(anonymous namespace)::_EditSimplifyKnotInfo", ptr %61, i32 0, i32 0
  %63 = load double, ptr %62, align 8
  %64 = load ptr, ptr %6, align 8
  %65 = load i64, ptr %7, align 8
  %66 = sub i64 %65, 1
  %67 = call noundef nonnull align 8 dereferenceable(24) ptr @_ZNSt6vectorIN32pxrInternal_v0_24__pxrReserved__12_GLOBAL__N_121_EditSimplifyKnotInfoESaIS2_EEixEm(ptr noundef nonnull align 8 dereferenceable(24) %64, i64 noundef %66) #3
  %68 = getelementptr inbounds nuw %"struct.pxrInternal_v0_24__pxrReserved__::(anonymous namespace)::_EditSimplifyKnotInfo", ptr %67, i32 0, i32 0
  %69 = load double, ptr %68, align 8
  %70 = load ptr, ptr %6, align 8
  %71 = load i64, ptr %7, align 8
  %72 = add i64 %71, 1
  %73 = call noundef nonnull align 8 dereferenceable(24) ptr @_ZNSt6vectorIN32pxrInternal_v0_24__pxrReserved__12_GLOBAL__N_121_EditSimplifyKnotInfoESaIS2_EEixEm(ptr noundef nonnull align 8 dereferenceable(24) %70, i64 noundef %72) #3
  %74 = getelementptr inbounds nuw %"struct.pxrInternal_v0_24__pxrReserved__::(anonymous namespace)::_EditSimplifyKnotInfo", ptr %73, i32 0, i32 0
  %75 = load double, ptr %74, align 8
  call void @_ZN32pxrInternal_v0_24__pxrReserved__10GfIntervalC2Eddbb(ptr noundef nonnull align 8 dereferenceable(32) %13, double noundef %69, double noundef %75, i1 noundef zeroext true, i1 noundef zeroext true)
  %76 = load ptr, ptr %9, align 8
  %77 = load ptr, ptr %10, align 8
  %78 = call noundef double @_ZN32pxrInternal_v0_24__pxrReserved__25_ComputeErrorIfKeyRemovedEPNS_8TsSplineEdRKNS_10GfIntervalERKSt6vectorIdSaIdEES4_(ptr noundef %58, double noundef %63, ptr noundef nonnull align 8 dereferenceable(32) %13, ptr noundef nonnull align 8 dereferenceable(24) %76, ptr noundef nonnull align 8 dereferenceable(32) %77)
  %79 = load ptr, ptr %6, align 8
  %80 = load i64, ptr %7, align 8
  %81 = call noundef nonnull align 8 dereferenceable(24) ptr @_ZNSt6vectorIN32pxrInternal_v0_24__pxrReserved__12_GLOBAL__N_121_EditSimplifyKnotInfoESaIS2_EEixEm(ptr noundef nonnull align 8 dereferenceable(24) %79, i64 noundef %80) #3
  %82 = getelementptr inbounds nuw %"struct.pxrInternal_v0_24__pxrReserved__::(anonymous namespace)::_EditSimplifyKnotInfo", ptr %81, i32 0, i32 3
  store double %78, ptr %82, align 8
  br label %88

83:                                               ; preds = %31
  %84 = load ptr, ptr %6, align 8
  %85 = load i64, ptr %7, align 8
  %86 = call noundef nonnull align 8 dereferenceable(24) ptr @_ZNSt6vectorIN32pxrInternal_v0_24__pxrReserved__12_GLOBAL__N_121_EditSimplifyKnotInfoESaIS2_EEixEm(ptr noundef nonnull align 8 dereferenceable(24) %84, i64 noundef %85) #3
  %87 = getelementptr inbounds nuw %"struct.pxrInternal_v0_24__pxrReserved__::(anonymous namespace)::_EditSimplifyKnotInfo", ptr %86, i32 0, i32 3
  store double 0x7FEFFFFFFFFFFFFF, ptr %87, align 8
  br label %88

88:                                               ; preds = %83, %57, %56, %30
  ret void
}