; Function Attrs: mustprogress uwtable
define internal fastcc void @_ZN32pxrInternal_v0_24__pxrReserved__L29_SetKnotInfoErrorIfKeyRemovedERSt6vectorINS_12_GLOBAL__N_121_EditSimplifyKnotInfoESaIS2_EEmPNS_8TsSplineERKS0_IdSaIdEERKNS_10GfIntervalE(ptr noundef nonnull readonly align 8 captures(none) dereferenceable(24) %0, i64 noundef %1, ptr noundef nonnull %2, ptr noundef nonnull readonly align 8 captures(none) dereferenceable(24) %3, ptr noundef nonnull readonly align 8 captures(none) dereferenceable(32) %4) unnamed_addr #3 {
  %6 = alloca %"class.pxrInternal_v0_24__pxrReserved__::TfCallContext", align 8
  %7 = alloca %"class.pxrInternal_v0_24__pxrReserved__::TfCallContext", align 8
  %8 = alloca %"class.pxrInternal_v0_24__pxrReserved__::GfInterval", align 8
  %.val27 = load ptr, ptr %0, align 8
  %9 = getelementptr inbounds nuw i8, ptr %0, i64 8
  %.val28 = load ptr, ptr %9, align 8
  %10 = ptrtoint ptr %.val28 to i64
  %11 = ptrtoint ptr %.val27 to i64
  %12 = sub i64 %10, %11
  %13 = sdiv exact i64 %12, 24
  %14 = icmp ult i64 %1, %13
  br i1 %14, label %.critedge23, label %.critedge

.critedge:                                        ; preds = %5
  store ptr @.str, ptr %6, align 8
  %15 = getelementptr inbounds nuw i8, ptr %6, i64 8
  store ptr @__func__._ZN32pxrInternal_v0_24__pxrReserved__L29_SetKnotInfoErrorIfKeyRemovedERSt6vectorINS_12_GLOBAL__N_121_EditSimplifyKnotInfoESaIS2_EEmPNS_8TsSplineERKS0_IdSaIdEERKNS_10GfIntervalE, ptr %15, align 8
  %16 = getelementptr inbounds nuw i8, ptr %6, i64 16
  store i64 395, ptr %16, align 8
  %17 = getelementptr inbounds nuw i8, ptr %6, i64 24
  store ptr @__PRETTY_FUNCTION__._ZN32pxrInternal_v0_24__pxrReserved__L29_SetKnotInfoErrorIfKeyRemovedERSt6vectorINS_12_GLOBAL__N_121_EditSimplifyKnotInfoESaIS2_EEmPNS_8TsSplineERKS0_IdSaIdEERKNS_10GfIntervalE, ptr %17, align 8
  %18 = getelementptr inbounds nuw i8, ptr %6, i64 32
  store i8 0, ptr %18, align 8
  %19 = call noundef zeroext i1 @_ZN32pxrInternal_v0_24__pxrReserved__21Tf_FailedVerifyHelperERKNS_13TfCallContextEPKcS4_(ptr noundef nonnull align 8 dereferenceable(33) %6, ptr noundef nonnull @.str.18, ptr noundef null)
  br i1 %19, label %.critedge..critedge23_crit_edge, label %52

.critedge..critedge23_crit_edge:                  ; preds = %.critedge
  %.val29.pre = load ptr, ptr %0, align 8
  br label %.critedge23

.critedge23:                                      ; preds = %.critedge..critedge23_crit_edge, %5
  %.val29 = phi ptr [ %.val29.pre, %.critedge..critedge23_crit_edge ], [ %.val27, %5 ]
  %20 = getelementptr inbounds %"struct.pxrInternal_v0_24__pxrReserved__::(anonymous namespace)::_EditSimplifyKnotInfo", ptr %.val29, i64 %1
  %21 = getelementptr inbounds nuw i8, ptr %20, i64 12
  %22 = load i8, ptr %21, align 4
  %23 = trunc i8 %22 to i1
  br i1 %23, label %24, label %50

24:                                               ; preds = %.critedge23
  %.not = icmp eq i64 %1, 0
  br i1 %.not, label %.critedge2, label %25

25:                                               ; preds = %24
  %.val26 = load ptr, ptr %9, align 8
  %26 = ptrtoint ptr %.val26 to i64
  %27 = ptrtoint ptr %.val29 to i64
  %28 = sub i64 %26, %27
  %29 = sdiv exact i64 %28, 24
  %30 = add nsw i64 %29, -1
  %31 = icmp ult i64 %1, %30
  br i1 %31, label %.critedge25, label %.critedge2

.critedge2:                                       ; preds = %24, %25
  store ptr @.str, ptr %7, align 8
  %32 = getelementptr inbounds nuw i8, ptr %7, i64 8
  store ptr @__func__._ZN32pxrInternal_v0_24__pxrReserved__L29_SetKnotInfoErrorIfKeyRemovedERSt6vectorINS_12_GLOBAL__N_121_EditSimplifyKnotInfoESaIS2_EEmPNS_8TsSplineERKS0_IdSaIdEERKNS_10GfIntervalE, ptr %32, align 8
  %33 = getelementptr inbounds nuw i8, ptr %7, i64 16
  store i64 400, ptr %33, align 8
  %34 = getelementptr inbounds nuw i8, ptr %7, i64 24
  store ptr @__PRETTY_FUNCTION__._ZN32pxrInternal_v0_24__pxrReserved__L29_SetKnotInfoErrorIfKeyRemovedERSt6vectorINS_12_GLOBAL__N_121_EditSimplifyKnotInfoESaIS2_EEmPNS_8TsSplineERKS0_IdSaIdEERKNS_10GfIntervalE, ptr %34, align 8
  %35 = getelementptr inbounds nuw i8, ptr %7, i64 32
  store i8 0, ptr %35, align 8
  %36 = call noundef zeroext i1 @_ZN32pxrInternal_v0_24__pxrReserved__21Tf_FailedVerifyHelperERKNS_13TfCallContextEPKcS4_(ptr noundef nonnull align 8 dereferenceable(33) %7, ptr noundef nonnull @.str.19, ptr noundef null)
  br i1 %36, label %.critedge2..critedge25_crit_edge, label %52

.critedge2..critedge25_crit_edge:                 ; preds = %.critedge2
  %.val30.pre = load ptr, ptr %0, align 8
  br label %.critedge25

.critedge25:                                      ; preds = %.critedge2..critedge25_crit_edge, %25
  %.val30 = phi ptr [ %.val30.pre, %.critedge2..critedge25_crit_edge ], [ %.val29, %25 ]
  %37 = getelementptr %"struct.pxrInternal_v0_24__pxrReserved__::(anonymous namespace)::_EditSimplifyKnotInfo", ptr %.val30, i64 %1
  %38 = load double, ptr %37, align 8
  %39 = getelementptr i8, ptr %37, i64 -24
  %40 = load double, ptr %39, align 8
  %41 = getelementptr i8, ptr %37, i64 24
  %42 = load double, ptr %41, align 8
  store double %40, ptr %8, align 8
  %43 = getelementptr inbounds nuw i8, ptr %8, i64 8
  %44 = call double @llvm.fabs.f64(double %40)
  %or.cond.i.i = fcmp une double %44, 0x7FF0000000000000
  %spec.store.select.i.i = zext i1 %or.cond.i.i to i8
  store i8 %spec.store.select.i.i, ptr %43, align 8
  %45 = getelementptr inbounds nuw i8, ptr %8, i64 16
  store double %42, ptr %45, align 8
  %46 = getelementptr inbounds nuw i8, ptr %8, i64 24
  %47 = call double @llvm.fabs.f64(double %42)
  %or.cond.i4.i = fcmp une double %47, 0x7FF0000000000000
  %spec.store.select.i6.i = zext i1 %or.cond.i4.i to i8
  store i8 %spec.store.select.i6.i, ptr %46, align 8
  %48 = call noundef double @_ZN32pxrInternal_v0_24__pxrReserved__25_ComputeErrorIfKeyRemovedEPNS_8TsSplineEdRKNS_10GfIntervalERKSt6vectorIdSaIdEES4_(ptr noundef nonnull %2, double noundef %38, ptr noundef nonnull align 8 dereferenceable(32) %8, ptr noundef nonnull align 8 dereferenceable(24) %3, ptr noundef nonnull align 8 dereferenceable(32) %4)
  %.val33 = load ptr, ptr %0, align 8
  %49 = getelementptr inbounds %"struct.pxrInternal_v0_24__pxrReserved__::(anonymous namespace)::_EditSimplifyKnotInfo", ptr %.val33, i64 %1, i32 3
  store double %48, ptr %49, align 8
  br label %52

50:                                               ; preds = %.critedge23
  %51 = getelementptr inbounds nuw i8, ptr %20, i64 16
  store double 0x7FEFFFFFFFFFFFFF, ptr %51, align 8
  br label %52

52:                                               ; preds = %.critedge2, %.critedge, %50, %.critedge25
  ret void
}